target datalayout = "e-m:e-p270:32:32-p271:32:32-p272:64:64-i64:64-i128:128-f80:128-n8:16:32:64-S128"
target triple = "x86_64-pc-linux-gnu"

@.str.311 = private unnamed_addr constant [64 x i8] c"cli_pdf: aes_128cbc_encrypt: key length: %zu, data length: %zu\0A\00", align 1
@.str.312 = private unnamed_addr constant [49 x i8] c"cli_pdf: aes_128cbc_encrypt: key length is %zu!\0A\00", align 1
@.str.313 = private unnamed_addr constant [52 x i8] c"cli_pdf: aes_128cbc_encrypt: in_length is <16: %zu\0A\00", align 1
@.str.314 = private unnamed_addr constant [50 x i8] c"aes_128cbc_encrypt: Calling rijndaelSetupEncrypt\0A\00", align 1
@.str.315 = private unnamed_addr constant [42 x i8] c"cli_pdf: aes_128cbc_encrypt: nrounds = 0\0A\00", align 1
@.str.316 = private unnamed_addr constant [47 x i8] c"aes_128cbc_encrypt: Beginning rijndaelEncrypt\0A\00", align 1
@.str.317 = private unnamed_addr constant [44 x i8] c"cli_pdf: aes_128cbc_encrypt: length is %zu\0A\00", align 1

; Function Attrs: nounwind uwtable
define internal void @aes_128cbc_encrypt(ptr noundef %0, i64 noundef %1, ptr noundef %2, ptr noundef %3, ptr noundef %4, i64 noundef %5, ptr noundef %6) #0 {
  %8 = alloca ptr, align 8
  %9 = alloca i64, align 8
  %10 = alloca ptr, align 8
  %11 = alloca ptr, align 8
  %12 = alloca ptr, align 8
  %13 = alloca i64, align 8
  %14 = alloca ptr, align 8
  %15 = alloca [44 x i32], align 16
  %16 = alloca [16 x i8], align 16
  %17 = alloca i32, align 4
  %18 = alloca i8, align 1
  store ptr %0, ptr %8, align 8
  store i64 %1, ptr %9, align 8
  store ptr %2, ptr %10, align 8
  store ptr %3, ptr %11, align 8
  store ptr %4, ptr %12, align 8
  store i64 %5, ptr %13, align 8
  store ptr %6, ptr %14, align 8
  call void @llvm.memset.p0.i64(ptr align 16 %16, i8 0, i64 16, i1 false)
  store i8 0, ptr %18, align 1
  %19 = load i64, ptr %13, align 8
  %20 = load i64, ptr %9, align 8
  call void (ptr, ...) @cli_dbgmsg(ptr noundef @.str.311, i64 noundef %19, i64 noundef %20)
  %21 = load i64, ptr %13, align 8
  %22 = icmp ugt i64 %21, 16
  br i1 %22, label %23, label %26

23:                                               ; preds = %7
  %24 = load i64, ptr %13, align 8
  %25 = mul i64 %24, 8
  call void (ptr, ...) @cli_dbgmsg(ptr noundef @.str.312, i64 noundef %25)
  br label %108

26:                                               ; preds = %7
  %27 = load i64, ptr %9, align 8
  %28 = icmp ult i64 %27, 16
  br i1 %28, label %29, label %31

29:                                               ; preds = %26
  %30 = load i64, ptr %9, align 8
  call void (ptr, ...) @cli_dbgmsg(ptr noundef @.str.313, i64 noundef %30)
  br label %108

31:                                               ; preds = %26
  call void (ptr, ...) @cli_dbgmsg(ptr noundef @.str.314)
  %32 = getelementptr inbounds [44 x i32], ptr %15, i64 0, i64 0
  %33 = load ptr, ptr %12, align 8
  %34 = load i64, ptr %13, align 8
  %35 = mul i64 %34, 8
  %36 = trunc i64 %35 to i32
  %37 = call i32 @rijndaelSetupEncrypt(ptr noundef %32, ptr noundef %33, i32 noundef %36)
  store i32 %37, ptr %17, align 4
  %38 = load i32, ptr %17, align 4
  %39 = icmp ne i32 %38, 0
  br i1 %39, label %41, label %40

40:                                               ; preds = %31
  call void (ptr, ...) @cli_dbgmsg(ptr noundef @.str.315)
  br label %108

41:                                               ; preds = %31
  call void (ptr, ...) @cli_dbgmsg(ptr noundef @.str.316)
  %42 = load ptr, ptr %14, align 8
  %43 = icmp ne ptr %42, null
  br i1 %43, label %44, label %47

44:                                               ; preds = %41
  %45 = getelementptr inbounds [16 x i8], ptr %16, i64 0, i64 0
  %46 = load ptr, ptr %14, align 8
  call void @llvm.memcpy.p0.p0.i64(ptr align 16 %45, ptr align 1 %46, i64 16, i1 false)
  br label %47

47:                                               ; preds = %44, %41
  %48 = load ptr, ptr %11, align 8
  store i64 0, ptr %48, align 8
  br label %49

49:                                               ; preds = %95, %47
  %50 = load i64, ptr %9, align 8
  %51 = icmp uge i64 %50, 16
  br i1 %51, label %52, label %105

52:                                               ; preds = %49
  store i8 0, ptr %18, align 1
  br label %53

53:                                               ; preds = %71, %52
  %54 = load i8, ptr %18, align 1
  %55 = zext i8 %54 to i32
  %56 = icmp slt i32 %55, 16
  br i1 %56, label %57, label %74

57:                                               ; preds = %53
  %58 = load ptr, ptr %8, align 8
  %59 = load i8, ptr %18, align 1
  %60 = zext i8 %59 to i64
  %61 = getelementptr inbounds i8, ptr %58, i64 %60
  %62 = load i8, ptr %61, align 1
  %63 = zext i8 %62 to i32
  %64 = load i8, ptr %18, align 1
  %65 = zext i8 %64 to i64
  %66 = getelementptr inbounds [16 x i8], ptr %16, i64 0, i64 %65
  %67 = load i8, ptr %66, align 1
  %68 = zext i8 %67 to i32
  %69 = xor i32 %68, %63
  %70 = trunc i32 %69 to i8
  store i8 %70, ptr %66, align 1
  br label %71

71:                                               ; preds = %57
  %72 = load i8, ptr %18, align 1
  %73 = add i8 %72, 1
  store i8 %73, ptr %18, align 1
  br label %53

74:                                               ; preds = %53
  %75 = getelementptr inbounds [44 x i32], ptr %15, i64 0, i64 0
  %76 = load i32, ptr %17, align 4
  %77 = getelementptr inbounds [16 x i8], ptr %16, i64 0, i64 0
  %78 = getelementptr inbounds [16 x i8], ptr %16, i64 0, i64 0
  call void @rijndaelEncrypt(ptr noundef %75, i32 noundef %76, ptr noundef %77, ptr noundef %78)
  store i8 0, ptr %18, align 1
  br label %79

79:                                               ; preds = %92, %74
  %80 = load i8, ptr %18, align 1
  %81 = zext i8 %80 to i32
  %82 = icmp slt i32 %81, 16
  br i1 %82, label %83, label %95

83:                                               ; preds = %79
  %84 = load i8, ptr %18, align 1
  %85 = zext i8 %84 to i64
  %86 = getelementptr inbounds [16 x i8], ptr %16, i64 0, i64 %85
  %87 = load i8, ptr %86, align 1
  %88 = load ptr, ptr %10, align 8
  %89 = load i8, ptr %18, align 1
  %90 = zext i8 %89 to i64
  %91 = getelementptr inbounds i8, ptr %88, i64 %90
  store i8 %87, ptr %91, align 1
  br label %92

92:                                               ; preds = %83
  %93 = load i8, ptr %18, align 1
  %94 = add i8 %93, 1
  store i8 %94, ptr %18, align 1
  br label %79

95:                                               ; preds = %79
  %96 = load ptr, ptr %10, align 8
  %97 = getelementptr inbounds i8, ptr %96, i64 16
  store ptr %97, ptr %10, align 8
  %98 = load ptr, ptr %11, align 8
  %99 = load i64, ptr %98, align 8
  %100 = add i64 %99, 16
  store i64 %100, ptr %98, align 8
  %101 = load ptr, ptr %8, align 8
  %102 = getelementptr inbounds i8, ptr %101, i64 16
  store ptr %102, ptr %8, align 8
  %103 = load i64, ptr %9, align 8
  %104 = sub i64 %103, 16
  store i64 %104, ptr %9, align 8
  br label %49

105:                                              ; preds = %49
  %106 = load ptr, ptr %11, align 8
  %107 = load i64, ptr %106, align 8
  call void (ptr, ...) @cli_dbgmsg(ptr noundef @.str.317, i64 noundef %107)
  br label %108

108:                                              ; preds = %105, %40, %29, %23
  ret void
}

; Function Attrs: nounwind uwtable
define internal void @compute_hash_r6(ptr noundef %0, i64 noundef %1, ptr noundef %2, ptr noundef %3, ptr noundef %4) #0 {
  %6 = alloca ptr, align 8
  %7 = alloca i64, align 8
  %8 = alloca ptr, align 8
  %9 = alloca ptr, align 8
  %10 = alloca ptr, align 8
  %11 = alloca [15360 x i8], align 16
  %12 = alloca [64 x i8], align 16
  %13 = alloca i32, align 4
  %14 = alloca i64, align 8
  %15 = alloca i64, align 8
  %16 = alloca i32, align 4
  %17 = alloca i32, align 4
  %18 = alloca i32, align 4
  %19 = alloca [32 x i8], align 16
  %20 = alloca [48 x i8], align 16
  %21 = alloca [64 x i8], align 16
  store ptr %0, ptr %6, align 8
  store i64 %1, ptr %7, align 8
  store ptr %2, ptr %8, align 8
  store ptr %3, ptr %9, align 8
  store ptr %4, ptr %10, align 8
  store i32 32, ptr %13, align 4
  store i64 0, ptr %14, align 8
  %22 = getelementptr inbounds [15360 x i8], ptr %11, i64 0, i64 0
  %23 = load ptr, ptr %6, align 8
  %24 = load i64, ptr %7, align 8
  call void @llvm.memcpy.p0.p0.i64(ptr align 16 %22, ptr align 1 %23, i64 %24, i1 false)
  %25 = getelementptr inbounds [15360 x i8], ptr %11, i64 0, i64 0
  %26 = load i64, ptr %7, align 8
  %27 = getelementptr inbounds i8, ptr %25, i64 %26
  %28 = load ptr, ptr %8, align 8
  call void @llvm.memcpy.p0.p0.i64(ptr align 1 %27, ptr align 1 %28, i64 8, i1 false)
  %29 = load ptr, ptr %10, align 8
  %30 = icmp ne ptr null, %29
  br i1 %30, label %31, label %43

31:                                               ; preds = %5
  %32 = getelementptr inbounds [15360 x i8], ptr %11, i64 0, i64 0
  %33 = load i64, ptr %7, align 8
  %34 = getelementptr inbounds i8, ptr %32, i64 %33
  %35 = getelementptr inbounds i8, ptr %34, i64 8
  %36 = load ptr, ptr %10, align 8
  call void @llvm.memcpy.p0.p0.i64(ptr align 1 %35, ptr align 1 %36, i64 48, i1 false)
  %37 = getelementptr inbounds [15360 x i8], ptr %11, i64 0, i64 0
  %38 = load i64, ptr %7, align 8
  %39 = add i64 %38, 8
  %40 = add i64 %39, 48
  %41 = getelementptr inbounds [64 x i8], ptr %12, i64 0, i64 0
  %42 = call ptr @cl_sha256(ptr noundef %37, i64 noundef %40, ptr noundef %41, ptr noundef null)
  br label %49

43:                                               ; preds = %5
  %44 = getelementptr inbounds [15360 x i8], ptr %11, i64 0, i64 0
  %45 = load i64, ptr %7, align 8
  %46 = add i64 %45, 8
  %47 = getelementptr inbounds [64 x i8], ptr %12, i64 0, i64 0
  %48 = call ptr @cl_sha256(ptr noundef %44, i64 noundef %46, ptr noundef %47, ptr noundef null)
  br label %49

49:                                               ; preds = %43, %31
  store i32 0, ptr %16, align 4
  br label %50

50:                                               ; preds = %160, %49
  %51 = load i32, ptr %16, align 4
  %52 = icmp slt i32 %51, 64
  br i1 %52, label %63, label %53

53:                                               ; preds = %50
  %54 = load i32, ptr %16, align 4
  %55 = load i64, ptr %14, align 8
  %56 = mul i64 %55, 64
  %57 = sub i64 %56, 1
  %58 = getelementptr inbounds [15360 x i8], ptr %11, i64 0, i64 %57
  %59 = load i8, ptr %58, align 1
  %60 = zext i8 %59 to i32
  %61 = add nsw i32 %60, 32
  %62 = icmp slt i32 %54, %61
  br label %63

63:                                               ; preds = %53, %50
  %64 = phi i1 [ true, %50 ], [ %62, %53 ]
  br i1 %64, label %65, label %163

65:                                               ; preds = %63
  %66 = getelementptr inbounds [15360 x i8], ptr %11, i64 0, i64 0
  %67 = load ptr, ptr %6, align 8
  %68 = load i64, ptr %7, align 8
  call void @llvm.memcpy.p0.p0.i64(ptr align 16 %66, ptr align 1 %67, i64 %68, i1 false)
  %69 = getelementptr inbounds [15360 x i8], ptr %11, i64 0, i64 0
  %70 = load i64, ptr %7, align 8
  %71 = getelementptr inbounds i8, ptr %69, i64 %70
  %72 = getelementptr inbounds [64 x i8], ptr %12, i64 0, i64 0
  %73 = load i32, ptr %13, align 4
  %74 = sext i32 %73 to i64
  call void @llvm.memcpy.p0.p0.i64(ptr align 1 %71, ptr align 16 %72, i64 %74, i1 false)
  %75 = load i64, ptr %7, align 8
  %76 = load i32, ptr %13, align 4
  %77 = sext i32 %76 to i64
  %78 = add i64 %75, %77
  store i64 %78, ptr %14, align 8
  %79 = load ptr, ptr %10, align 8
  %80 = icmp ne ptr null, %79
  br i1 %80, label %81, label %91

81:                                               ; preds = %65
  %82 = getelementptr inbounds [15360 x i8], ptr %11, i64 0, i64 0
  %83 = load i64, ptr %7, align 8
  %84 = getelementptr inbounds i8, ptr %82, i64 %83
  %85 = load i32, ptr %13, align 4
  %86 = sext i32 %85 to i64
  %87 = getelementptr inbounds i8, ptr %84, i64 %86
  %88 = load ptr, ptr %10, align 8
  call void @llvm.memcpy.p0.p0.i64(ptr align 1 %87, ptr align 1 %88, i64 48, i1 false)
  %89 = load i64, ptr %14, align 8
  %90 = add i64 %89, 48
  store i64 %90, ptr %14, align 8
  br label %91

91:                                               ; preds = %81, %65
  store i32 1, ptr %17, align 4
  br label %92

92:                                               ; preds = %104, %91
  %93 = load i32, ptr %17, align 4
  %94 = icmp slt i32 %93, 64
  br i1 %94, label %95, label %107

95:                                               ; preds = %92
  %96 = getelementptr inbounds [15360 x i8], ptr %11, i64 0, i64 0
  %97 = load i32, ptr %17, align 4
  %98 = sext i32 %97 to i64
  %99 = load i64, ptr %14, align 8
  %100 = mul i64 %98, %99
  %101 = getelementptr inbounds i8, ptr %96, i64 %100
  %102 = getelementptr inbounds [15360 x i8], ptr %11, i64 0, i64 0
  %103 = load i64, ptr %14, align 8
  call void @llvm.memcpy.p0.p0.i64(ptr align 1 %101, ptr align 16 %102, i64 %103, i1 false)
  br label %104

104:                                              ; preds = %95
  %105 = load i32, ptr %17, align 4
  %106 = add nsw i32 %105, 1
  store i32 %106, ptr %17, align 4
  br label %92

107:                                              ; preds = %92
  %108 = getelementptr inbounds [15360 x i8], ptr %11, i64 0, i64 0
  %109 = load i64, ptr %14, align 8
  %110 = mul i64 %109, 64
  %111 = getelementptr inbounds [15360 x i8], ptr %11, i64 0, i64 0
  %112 = getelementptr inbounds [64 x i8], ptr %12, i64 0, i64 0
  %113 = getelementptr inbounds [64 x i8], ptr %12, i64 0, i64 0
  %114 = getelementptr inbounds i8, ptr %113, i64 16
  call void @aes_128cbc_encrypt(ptr noundef %108, i64 noundef %110, ptr noundef %111, ptr noundef %15, ptr noundef %112, i64 noundef 16, ptr noundef %114)
  store i32 0, ptr %17, align 4
  store i32 0, ptr %18, align 4
  br label %115

115:                                              ; preds = %126, %107
  %116 = load i32, ptr %17, align 4
  %117 = icmp slt i32 %116, 16
  br i1 %117, label %118, label %129

118:                                              ; preds = %115
  %119 = load i32, ptr %17, align 4
  %120 = sext i32 %119 to i64
  %121 = getelementptr inbounds [15360 x i8], ptr %11, i64 0, i64 %120
  %122 = load i8, ptr %121, align 1
  %123 = zext i8 %122 to i32
  %124 = load i32, ptr %18, align 4
  %125 = add nsw i32 %124, %123
  store i32 %125, ptr %18, align 4
  br label %126

126:                                              ; preds = %118
  %127 = load i32, ptr %17, align 4
  %128 = add nsw i32 %127, 1
  store i32 %128, ptr %17, align 4
  br label %115

129:                                              ; preds = %115
  %130 = load i32, ptr %18, align 4
  %131 = srem i32 %130, 3
  %132 = mul nsw i32 %131, 16
  %133 = add nsw i32 32, %132
  store i32 %133, ptr %13, align 4
  %134 = load i32, ptr %13, align 4
  switch i32 %134, label %159 [
    i32 32, label %135
    i32 48, label %143
    i32 64, label %151
  ]

135:                                              ; preds = %129
  %136 = getelementptr inbounds [15360 x i8], ptr %11, i64 0, i64 0
  %137 = load i64, ptr %14, align 8
  %138 = mul i64 %137, 64
  %139 = getelementptr inbounds [32 x i8], ptr %19, i64 0, i64 0
  %140 = call ptr @cl_sha256(ptr noundef %136, i64 noundef %138, ptr noundef %139, ptr noundef null)
  %141 = getelementptr inbounds [64 x i8], ptr %12, i64 0, i64 0
  %142 = getelementptr inbounds [32 x i8], ptr %19, i64 0, i64 0
  call void @llvm.memcpy.p0.p0.i64(ptr align 16 %141, ptr align 16 %142, i64 32, i1 false)
  br label %159

143:                                              ; preds = %129
  %144 = getelementptr inbounds [15360 x i8], ptr %11, i64 0, i64 0
  %145 = load i64, ptr %14, align 8
  %146 = mul i64 %145, 64
  %147 = getelementptr inbounds [48 x i8], ptr %20, i64 0, i64 0
  %148 = call ptr @cl_sha384(ptr noundef %144, i64 noundef %146, ptr noundef %147, ptr noundef null)
  %149 = getelementptr inbounds [64 x i8], ptr %12, i64 0, i64 0
  %150 = getelementptr inbounds [48 x i8], ptr %20, i64 0, i64 0
  call void @llvm.memcpy.p0.p0.i64(ptr align 16 %149, ptr align 16 %150, i64 48, i1 false)
  br label %159

151:                                              ; preds = %129
  %152 = getelementptr inbounds [15360 x i8], ptr %11, i64 0, i64 0
  %153 = load i64, ptr %14, align 8
  %154 = mul i64 %153, 64
  %155 = getelementptr inbounds [64 x i8], ptr %21, i64 0, i64 0
  %156 = call ptr @cl_sha512(ptr noundef %152, i64 noundef %154, ptr noundef %155, ptr noundef null)
  %157 = getelementptr inbounds [64 x i8], ptr %12, i64 0, i64 0
  %158 = getelementptr inbounds [64 x i8], ptr %21, i64 0, i64 0
  call void @llvm.memcpy.p0.p0.i64(ptr align 16 %157, ptr align 16 %158, i64 64, i1 false)
  br label %159

159:                                              ; preds = %151, %143, %135, %129
  br label %160

160:                                              ; preds = %159
  %161 = load i32, ptr %16, align 4
  %162 = add nsw i32 %161, 1
  store i32 %162, ptr %16, align 4
  br label %50

163:                                              ; preds = %63
  %164 = load ptr, ptr %9, align 8
  %165 = getelementptr inbounds [64 x i8], ptr %12, i64 0, i64 0
  call void @llvm.memcpy.p0.p0.i64(ptr align 1 %164, ptr align 16 %165, i64 32, i1 false)
  ret void
}