; Function Attrs: nounwind uwtable
define internal fastcc void @compute_hash_r6(i64 %.0.val, ptr nocapture noundef writeonly %0, ptr noundef readonly %1) unnamed_addr #0 {
  %3 = alloca [44 x i32], align 16
  %4 = alloca [16 x i8], align 16
  %5 = alloca [15360 x i8], align 16
  %6 = alloca [64 x i8], align 16
  %7 = alloca [32 x i8], align 16
  %8 = alloca [48 x i8], align 16
  %9 = alloca [64 x i8], align 16
  store i64 %.0.val, ptr %5, align 16
  %.not = icmp eq ptr %1, null
  br i1 %.not, label %12, label %10

10:                                               ; preds = %2
  %11 = getelementptr inbounds i8, ptr %5, i64 8
  call void @llvm.memcpy.p0.p0.i64(ptr noundef nonnull align 8 dereferenceable(48) %11, ptr noundef nonnull align 1 dereferenceable(48) %1, i64 48, i1 false)
  br label %12

12:                                               ; preds = %2, %10
  %.sink = phi i64 [ 56, %10 ], [ 8, %2 ]
  %13 = call ptr @cl_sha256(ptr noundef nonnull %5, i64 noundef %.sink, ptr noundef nonnull %6, ptr noundef null) #22
  %14 = getelementptr inbounds i8, ptr %6, i64 16
  br label %15

15:                                               ; preds = %63, %12
  %.043 = phi i32 [ 32, %12 ], [ %56, %63 ]
  %.041 = phi i64 [ 0, %12 ], [ %.142, %63 ]
  %.040 = phi i32 [ 0, %12 ], [ %64, %63 ]
  %16 = icmp ult i32 %.040, 64
  br i1 %16, label %.critedge, label %17

17:                                               ; preds = %15
  %18 = shl nuw nsw i64 %.041, 6
  %19 = add nsw i64 %18, -1
  %20 = getelementptr inbounds [15360 x i8], ptr %5, i64 0, i64 %19
  %21 = load i8, ptr %20, align 1
  %22 = zext i8 %21 to i32
  %23 = add nuw nsw i32 %22, 32
  %24 = icmp ult i32 %.040, %23
  br i1 %24, label %.critedge, label %65

.critedge:                                        ; preds = %15, %17
  %25 = zext nneg i32 %.043 to i64
  call void @llvm.memcpy.p0.p0.i64(ptr noundef nonnull align 16 dereferenceable(1) %5, ptr noundef nonnull align 16 dereferenceable(1) %6, i64 %25, i1 false)
  br i1 %.not, label %29, label %26

26:                                               ; preds = %.critedge
  %27 = getelementptr inbounds i8, ptr %5, i64 %25
  call void @llvm.memcpy.p0.p0.i64(ptr noundef nonnull align 1 dereferenceable(48) %27, ptr noundef nonnull align 1 dereferenceable(48) %1, i64 48, i1 false)
  %28 = add nuw nsw i64 %25, 48
  br label %29

29:                                               ; preds = %26, %.critedge
  %.142 = phi i64 [ %28, %26 ], [ %25, %.critedge ]
  br label %30

30:                                               ; preds = %29, %30
  %indvars.iv = phi i64 [ 1, %29 ], [ %indvars.iv.next, %30 ]
  %31 = mul nuw nsw i64 %.142, %indvars.iv
  %32 = getelementptr inbounds i8, ptr %5, i64 %31
  call void @llvm.memcpy.p0.p0.i64(ptr nonnull align 1 %32, ptr nonnull align 16 %5, i64 %.142, i1 false)
  %indvars.iv.next = add nuw nsw i64 %indvars.iv, 1
  %exitcond.not = icmp eq i64 %indvars.iv.next, 64
  br i1 %exitcond.not, label %33, label %30

33:                                               ; preds = %30
  %34 = shl nuw nsw i64 %.142, 6
  call void @llvm.lifetime.start.p0(i64 176, ptr nonnull %3)
  call void @llvm.lifetime.start.p0(i64 16, ptr nonnull %4)
  call void @llvm.memset.p0.i64(ptr noundef nonnull align 16 dereferenceable(16) %4, i8 0, i64 16, i1 false)
  call void (ptr, ...) @cli_dbgmsg(ptr noundef nonnull @.str.311, i64 noundef 16, i64 noundef %34) #22
  call void (ptr, ...) @cli_dbgmsg(ptr noundef nonnull @.str.314) #22
  %35 = call i32 @rijndaelSetupEncrypt(ptr noundef nonnull %3, ptr noundef nonnull %6, i32 noundef 128) #22
  %.not.i = icmp eq i32 %35, 0
  br i1 %.not.i, label %36, label %37

36:                                               ; preds = %33
  call void (ptr, ...) @cli_dbgmsg(ptr noundef nonnull @.str.315) #22
  br label %aes_128cbc_encrypt.exit

37:                                               ; preds = %33
  call void (ptr, ...) @cli_dbgmsg(ptr noundef nonnull @.str.316) #22
  call void @llvm.memcpy.p0.p0.i64(ptr noundef nonnull align 16 dereferenceable(16) %4, ptr noundef nonnull align 16 dereferenceable(16) %14, i64 16, i1 false)
  br label %.preheader.i

.preheader.i:                                     ; preds = %44, %37
  %.01 = phi i64 [ 0, %37 ], [ %46, %44 ]
  %.02842.i = phi ptr [ %5, %37 ], [ %45, %44 ]
  %.02941.i = phi i64 [ %34, %37 ], [ %47, %44 ]
  br label %38

38:                                               ; preds = %38, %.preheader.i
  %indvars.iv.i = phi i64 [ 0, %.preheader.i ], [ %indvars.iv.next.i, %38 ]
  %39 = getelementptr inbounds i8, ptr %.02842.i, i64 %indvars.iv.i
  %40 = load i8, ptr %39, align 1
  %41 = getelementptr inbounds [16 x i8], ptr %4, i64 0, i64 %indvars.iv.i
  %42 = load i8, ptr %41, align 1
  %43 = xor i8 %42, %40
  store i8 %43, ptr %41, align 1
  %indvars.iv.next.i = add nuw nsw i64 %indvars.iv.i, 1
  %exitcond.not.i = icmp eq i64 %indvars.iv.next.i, 16
  br i1 %exitcond.not.i, label %44, label %38

44:                                               ; preds = %38
  call void @rijndaelEncrypt(ptr noundef nonnull %3, i32 noundef %35, ptr noundef nonnull %4, ptr noundef nonnull %4) #22
  call void @llvm.memcpy.p0.p0.i64(ptr noundef nonnull align 1 dereferenceable(16) %.02842.i, ptr noundef nonnull align 16 dereferenceable(16) %4, i64 16, i1 false)
  %45 = getelementptr i8, ptr %.02842.i, i64 16
  %46 = add i64 %.01, 16
  %47 = add i64 %.02941.i, -16
  %.not2 = icmp eq i64 %47, 0
  br i1 %.not2, label %._crit_edge.i, label %.preheader.i

._crit_edge.i:                                    ; preds = %44
  call void (ptr, ...) @cli_dbgmsg(ptr noundef nonnull @.str.317, i64 noundef %46) #22
  br label %aes_128cbc_encrypt.exit

aes_128cbc_encrypt.exit:                          ; preds = %36, %._crit_edge.i
  call void @llvm.lifetime.end.p0(i64 176, ptr nonnull %3)
  call void @llvm.lifetime.end.p0(i64 16, ptr nonnull %4)
  br label %48

48:                                               ; preds = %aes_128cbc_encrypt.exit, %48
  %indvars.iv8 = phi i64 [ 0, %aes_128cbc_encrypt.exit ], [ %indvars.iv.next9, %48 ]
  %.05 = phi i32 [ 0, %aes_128cbc_encrypt.exit ], [ %52, %48 ]
  %49 = getelementptr inbounds [15360 x i8], ptr %5, i64 0, i64 %indvars.iv8
  %50 = load i8, ptr %49, align 1
  %51 = zext i8 %50 to i32
  %52 = add nuw nsw i32 %.05, %51
  %indvars.iv.next9 = add nuw nsw i64 %indvars.iv8, 1
  %exitcond11.not = icmp eq i64 %indvars.iv.next9, 16
  br i1 %exitcond11.not, label %53, label %48

53:                                               ; preds = %48
  %54 = urem i32 %52, 3
  %55 = shl nuw nsw i32 %54, 4
  %56 = add nuw nsw i32 %55, 32
  switch i32 %54, label %default.unreachable [
    i32 0, label %57
    i32 1, label %59
    i32 2, label %61
  ]

57:                                               ; preds = %53
  %58 = call ptr @cl_sha256(ptr noundef nonnull %5, i64 noundef %34, ptr noundef nonnull %7, ptr noundef null) #22
  call void @llvm.memcpy.p0.p0.i64(ptr noundef nonnull align 16 dereferenceable(32) %6, ptr noundef nonnull align 16 dereferenceable(32) %7, i64 32, i1 false)
  br label %63

59:                                               ; preds = %53
  %60 = call ptr @cl_sha384(ptr noundef nonnull %5, i64 noundef %34, ptr noundef nonnull %8, ptr noundef null) #22
  call void @llvm.memcpy.p0.p0.i64(ptr noundef nonnull align 16 dereferenceable(48) %6, ptr noundef nonnull align 16 dereferenceable(48) %8, i64 48, i1 false)
  br label %63

61:                                               ; preds = %53
  %62 = call ptr @cl_sha512(ptr noundef nonnull %5, i64 noundef %34, ptr noundef nonnull %9, ptr noundef null) #22
  call void @llvm.memcpy.p0.p0.i64(ptr noundef nonnull align 16 dereferenceable(64) %6, ptr noundef nonnull align 16 dereferenceable(64) %9, i64 64, i1 false)
  br label %63

default.unreachable:                              ; preds = %53
  unreachable

63:                                               ; preds = %57, %59, %61
  %64 = add nuw nsw i32 %.040, 1
  br label %15

65:                                               ; preds = %17
  call void @llvm.memcpy.p0.p0.i64(ptr noundef nonnull align 1 dereferenceable(32) %0, ptr noundef nonnull align 16 dereferenceable(32) %6, i64 32, i1 false)
  ret void
}